target datalayout = "e-m:e-p270:32:32-p271:32:32-p272:64:64-i64:64-i128:128-f80:128-n8:16:32:64-S128"
target triple = "x86_64-pc-linux-gnu"

; Function Attrs: mustprogress nounwind uwtable
define hidden noundef i32 @_ZN10duckdb_re216RepetitionWalker9PostVisitEPNS_6RegexpEiiPii(ptr noundef nonnull align 8 dereferenceable(96) %0, ptr noundef %1, i32 noundef %2, i32 noundef %3, ptr noundef %4, i32 noundef %5) unnamed_addr #0 align 2 {
  %7 = alloca ptr, align 8
  %8 = alloca ptr, align 8
  %9 = alloca i32, align 4
  %10 = alloca i32, align 4
  %11 = alloca ptr, align 8
  %12 = alloca i32, align 4
  %13 = alloca i32, align 4
  %14 = alloca i32, align 4
  store ptr %0, ptr %7, align 8, !tbaa !80
  store ptr %1, ptr %8, align 8, !tbaa !29
  store i32 %2, ptr %9, align 4, !tbaa !3
  store i32 %3, ptr %10, align 4, !tbaa !3
  store ptr %4, ptr %11, align 8, !tbaa !84
  store i32 %5, ptr %12, align 4, !tbaa !3
  call void @llvm.lifetime.start.p0(i64 4, ptr %13) #19
  %15 = load i32, ptr %10, align 4, !tbaa !3
  store i32 %15, ptr %13, align 4, !tbaa !3
  call void @llvm.lifetime.start.p0(i64 4, ptr %14) #19
  store i32 0, ptr %14, align 4, !tbaa !3
  br label %16

16:                                               ; preds = %36, %6
  %17 = load i32, ptr %14, align 4, !tbaa !3
  %18 = load i32, ptr %12, align 4, !tbaa !3
  %19 = icmp slt i32 %17, %18
  br i1 %19, label %21, label %20

20:                                               ; preds = %16
  call void @llvm.lifetime.end.p0(i64 4, ptr %14) #19
  br label %39

21:                                               ; preds = %16
  %22 = load ptr, ptr %11, align 8, !tbaa !84
  %23 = load i32, ptr %14, align 4, !tbaa !3
  %24 = sext i32 %23 to i64
  %25 = getelementptr inbounds i32, ptr %22, i64 %24
  %26 = load i32, ptr %25, align 4, !tbaa !3
  %27 = load i32, ptr %13, align 4, !tbaa !3
  %28 = icmp slt i32 %26, %27
  br i1 %28, label %29, label %35

29:                                               ; preds = %21
  %30 = load ptr, ptr %11, align 8, !tbaa !84
  %31 = load i32, ptr %14, align 4, !tbaa !3
  %32 = sext i32 %31 to i64
  %33 = getelementptr inbounds i32, ptr %30, i64 %32
  %34 = load i32, ptr %33, align 4, !tbaa !3
  store i32 %34, ptr %13, align 4, !tbaa !3
  br label %35

35:                                               ; preds = %29, %21
  br label %36

36:                                               ; preds = %35
  %37 = load i32, ptr %14, align 4, !tbaa !3
  %38 = add nsw i32 %37, 1
  store i32 %38, ptr %14, align 4, !tbaa !3
  br label %16, !llvm.loop !86

39:                                               ; preds = %20
  %40 = load i32, ptr %13, align 4, !tbaa !3
  call void @llvm.lifetime.end.p0(i64 4, ptr %13) #19
  ret i32 %40
}