; Function Attrs: mustprogress nofree norecurse nosync nounwind willreturn memory(argmem: read) uwtable
define hidden noundef i32 @_ZN10duckdb_re216RepetitionWalker9PostVisitEPNS_6RegexpEiiPii(ptr nonnull readnone align 8 captures(none) %0, ptr readnone captures(none) %1, i32 %2, i32 noundef %3, ptr noundef readonly captures(none) %4, i32 noundef %5) unnamed_addr #13 align 2 {
  %7 = icmp sgt i32 %5, 0
  br i1 %7, label %.lr.ph.preheader, label %._crit_edge

.lr.ph.preheader:                                 ; preds = %6
  %wide.trip.count = zext nneg i32 %5 to i64
  br label %.lr.ph

._crit_edge:                                      ; preds = %.lr.ph, %6
  %.09.lcssa = phi i32 [ %3, %6 ], [ %spec.select, %.lr.ph ]
  ret i32 %.09.lcssa

.lr.ph:                                           ; preds = %.lr.ph.preheader, %.lr.ph
  %indvars.iv = phi i64 [ 0, %.lr.ph.preheader ], [ %indvars.iv.next, %.lr.ph ]
  %.0911 = phi i32 [ %3, %.lr.ph.preheader ], [ %spec.select, %.lr.ph ]
  %8 = getelementptr inbounds nuw i32, ptr %4, i64 %indvars.iv
  %9 = load i32, ptr %8, align 4, !tbaa !3
  %spec.select = tail call i32 @llvm.smin.i32(i32 %9, i32 %.0911)
  %indvars.iv.next = add nuw nsw i64 %indvars.iv, 1
  %exitcond.not = icmp eq i64 %indvars.iv.next, %wide.trip.count
  br i1 %exitcond.not, label %._crit_edge, label %.lr.ph, !llvm.loop !64
}